; Function Attrs: mustprogress nounwind uwtable
define hidden void @_ZN6hermes2vm16SamplingProfiler21dumpChromeTraceGlobalERN4llvh11raw_ostreamE(ptr noundef nonnull align 8 dereferenceable(36) %OS) local_unnamed_addr #0 align 2 {
entry:
  %call = tail call noundef ptr @_ZN6hermes2vm17sampling_profiler7Sampler3getEv() #18
  %profilerLock_ = getelementptr inbounds i8, ptr %call, i64 8
  %call1.i.i.i = tail call noundef i32 @pthread_mutex_lock(ptr noundef nonnull %profilerLock_) #18
  %tobool.not.i.i = icmp eq i32 %call1.i.i.i, 0
  br i1 %tobool.not.i.i, label %_ZNSt10lock_guardISt5mutexEC2ERS0_.exit, label %if.then.i.i

if.then.i.i:                                      ; preds = %entry
  tail call void @_ZSt20__throw_system_errori(i32 noundef %call1.i.i.i) #15
  unreachable

_ZNSt10lock_guardISt5mutexEC2ERS0_.exit:          ; preds = %entry
  %_M_element_count.i.i.i = getelementptr inbounds i8, ptr %call, i64 72
  %0 = load i64, ptr %_M_element_count.i.i.i, align 8
  %cmp.i.i = icmp eq i64 %0, 0
  br i1 %cmp.i.i, label %if.end, label %if.then

if.then:                                          ; preds = %_ZNSt10lock_guardISt5mutexEC2ERS0_.exit
  %_M_before_begin.i.i.i = getelementptr inbounds i8, ptr %call, i64 64
  %1 = load ptr, ptr %_M_before_begin.i.i.i, align 8
  %add.ptr.i = getelementptr inbounds i8, ptr %1, i64 8
  %2 = load ptr, ptr %add.ptr.i, align 8
  tail call void @_ZN6hermes2vm16SamplingProfiler15dumpChromeTraceERN4llvh11raw_ostreamE(ptr noundef nonnull align 8 dereferenceable(256) %2, ptr noundef nonnull align 8 dereferenceable(36) %OS)
  br label %if.end

if.end:                                           ; preds = %if.then, %_ZNSt10lock_guardISt5mutexEC2ERS0_.exit
  %call1.i.i.i3 = tail call noundef i32 @pthread_mutex_unlock(ptr noundef nonnull %profilerLock_) #18
  ret void
}